; Function Attrs: mustprogress uwtable
define noundef i64 @_ZN6casadi8Sparsity6sprankERKS0_(ptr noundef nonnull align 8 dereferenceable(8) %0) local_unnamed_addr #3 align 2 personality ptr @__gxx_personality_v0 {
  %2 = alloca %"class.std::vector.3", align 8
  %3 = alloca %"class.std::vector.3", align 8
  %4 = alloca %"class.std::vector.3", align 8
  %5 = alloca %"class.std::vector.3", align 8
  %6 = alloca %"class.std::vector.3", align 8
  %7 = alloca %"class.std::vector.3", align 8
  call void @llvm.memset.p0.i64(ptr noundef nonnull align 8 dereferenceable(24) %2, i8 0, i64 24, i1 false)
  call void @llvm.memset.p0.i64(ptr noundef nonnull align 8 dereferenceable(24) %3, i8 0, i64 24, i1 false)
  call void @llvm.memset.p0.i64(ptr noundef nonnull align 8 dereferenceable(24) %4, i8 0, i64 24, i1 false)
  call void @llvm.memset.p0.i64(ptr noundef nonnull align 8 dereferenceable(24) %5, i8 0, i64 24, i1 false)
  call void @llvm.memset.p0.i64(ptr noundef nonnull align 8 dereferenceable(24) %6, i8 0, i64 24, i1 false)
  call void @llvm.memset.p0.i64(ptr noundef nonnull align 8 dereferenceable(24) %7, i8 0, i64 24, i1 false)
  %8 = invoke noundef i64 @_ZNK6casadi8Sparsity3btfERSt6vectorIxSaIxEES4_S4_S4_S4_S4_(ptr noundef nonnull align 8 dereferenceable(8) %0, ptr noundef nonnull align 8 dereferenceable(24) %2, ptr noundef nonnull align 8 dereferenceable(24) %3, ptr noundef nonnull align 8 dereferenceable(24) %4, ptr noundef nonnull align 8 dereferenceable(24) %5, ptr noundef nonnull align 8 dereferenceable(24) %6, ptr noundef nonnull align 8 dereferenceable(24) %7)
          to label %9 unwind label %30

9:                                                ; preds = %1
  %10 = getelementptr inbounds i8, ptr %7, i64 8
  %11 = load ptr, ptr %10, align 8
  %12 = load ptr, ptr %7, align 8
  %13 = ptrtoint ptr %11 to i64
  %14 = ptrtoint ptr %12 to i64
  %15 = sub i64 %13, %14
  %16 = ashr exact i64 %15, 3
  %.not.i.i = icmp ugt i64 %16, 3
  br i1 %.not.i.i, label %_ZNSt6vectorIxSaIxEED2Ev.exit, label %17

17:                                               ; preds = %9
  invoke void (ptr, ...) @_ZSt24__throw_out_of_range_fmtPKcz(ptr noundef nonnull @.str.216, i64 noundef 3, i64 noundef %16) #25
          to label %.noexc unwind label %30

.noexc:                                           ; preds = %17
  unreachable

_ZNSt6vectorIxSaIxEED2Ev.exit:                    ; preds = %9
  %18 = getelementptr inbounds i8, ptr %12, i64 24
  %19 = load i64, ptr %18, align 8
  call void @_ZdlPv(ptr noundef nonnull %12) #26
  %20 = load ptr, ptr %6, align 8
  %.not.i.i.i2 = icmp eq ptr %20, null
  br i1 %.not.i.i.i2, label %_ZNSt6vectorIxSaIxEED2Ev.exit3, label %21

21:                                               ; preds = %_ZNSt6vectorIxSaIxEED2Ev.exit
  call void @_ZdlPv(ptr noundef nonnull %20) #26
  br label %_ZNSt6vectorIxSaIxEED2Ev.exit3

_ZNSt6vectorIxSaIxEED2Ev.exit3:                   ; preds = %_ZNSt6vectorIxSaIxEED2Ev.exit, %21
  %22 = load ptr, ptr %5, align 8
  %.not.i.i.i4 = icmp eq ptr %22, null
  br i1 %.not.i.i.i4, label %_ZNSt6vectorIxSaIxEED2Ev.exit5, label %23

23:                                               ; preds = %_ZNSt6vectorIxSaIxEED2Ev.exit3
  call void @_ZdlPv(ptr noundef nonnull %22) #26
  br label %_ZNSt6vectorIxSaIxEED2Ev.exit5

_ZNSt6vectorIxSaIxEED2Ev.exit5:                   ; preds = %_ZNSt6vectorIxSaIxEED2Ev.exit3, %23
  %24 = load ptr, ptr %4, align 8
  %.not.i.i.i6 = icmp eq ptr %24, null
  br i1 %.not.i.i.i6, label %_ZNSt6vectorIxSaIxEED2Ev.exit7, label %25

25:                                               ; preds = %_ZNSt6vectorIxSaIxEED2Ev.exit5
  call void @_ZdlPv(ptr noundef nonnull %24) #26
  br label %_ZNSt6vectorIxSaIxEED2Ev.exit7

_ZNSt6vectorIxSaIxEED2Ev.exit7:                   ; preds = %_ZNSt6vectorIxSaIxEED2Ev.exit5, %25
  %26 = load ptr, ptr %3, align 8
  %.not.i.i.i8 = icmp eq ptr %26, null
  br i1 %.not.i.i.i8, label %_ZNSt6vectorIxSaIxEED2Ev.exit9, label %27

27:                                               ; preds = %_ZNSt6vectorIxSaIxEED2Ev.exit7
  call void @_ZdlPv(ptr noundef nonnull %26) #26
  br label %_ZNSt6vectorIxSaIxEED2Ev.exit9

_ZNSt6vectorIxSaIxEED2Ev.exit9:                   ; preds = %_ZNSt6vectorIxSaIxEED2Ev.exit7, %27
  %28 = load ptr, ptr %2, align 8
  %.not.i.i.i10 = icmp eq ptr %28, null
  br i1 %.not.i.i.i10, label %_ZNSt6vectorIxSaIxEED2Ev.exit11, label %29

29:                                               ; preds = %_ZNSt6vectorIxSaIxEED2Ev.exit9
  call void @_ZdlPv(ptr noundef nonnull %28) #26
  br label %_ZNSt6vectorIxSaIxEED2Ev.exit11

_ZNSt6vectorIxSaIxEED2Ev.exit11:                  ; preds = %_ZNSt6vectorIxSaIxEED2Ev.exit9, %29
  ret i64 %19

30:                                               ; preds = %17, %1
  %31 = landingpad { ptr, i32 }
          cleanup
  %32 = load ptr, ptr %7, align 8
  %.not.i.i.i12 = icmp eq ptr %32, null
  br i1 %.not.i.i.i12, label %_ZNSt6vectorIxSaIxEED2Ev.exit13, label %33

33:                                               ; preds = %30
  call void @_ZdlPv(ptr noundef nonnull %32) #26
  br label %_ZNSt6vectorIxSaIxEED2Ev.exit13

_ZNSt6vectorIxSaIxEED2Ev.exit13:                  ; preds = %30, %33
  %34 = load ptr, ptr %6, align 8
  %.not.i.i.i14 = icmp eq ptr %34, null
  br i1 %.not.i.i.i14, label %_ZNSt6vectorIxSaIxEED2Ev.exit15, label %35

35:                                               ; preds = %_ZNSt6vectorIxSaIxEED2Ev.exit13
  call void @_ZdlPv(ptr noundef nonnull %34) #26
  br label %_ZNSt6vectorIxSaIxEED2Ev.exit15

_ZNSt6vectorIxSaIxEED2Ev.exit15:                  ; preds = %_ZNSt6vectorIxSaIxEED2Ev.exit13, %35
  %36 = load ptr, ptr %5, align 8
  %.not.i.i.i16 = icmp eq ptr %36, null
  br i1 %.not.i.i.i16, label %_ZNSt6vectorIxSaIxEED2Ev.exit17, label %37

37:                                               ; preds = %_ZNSt6vectorIxSaIxEED2Ev.exit15
  call void @_ZdlPv(ptr noundef nonnull %36) #26
  br label %_ZNSt6vectorIxSaIxEED2Ev.exit17

_ZNSt6vectorIxSaIxEED2Ev.exit17:                  ; preds = %_ZNSt6vectorIxSaIxEED2Ev.exit15, %37
  %38 = load ptr, ptr %4, align 8
  %.not.i.i.i18 = icmp eq ptr %38, null
  br i1 %.not.i.i.i18, label %_ZNSt6vectorIxSaIxEED2Ev.exit19, label %39

39:                                               ; preds = %_ZNSt6vectorIxSaIxEED2Ev.exit17
  call void @_ZdlPv(ptr noundef nonnull %38) #26
  br label %_ZNSt6vectorIxSaIxEED2Ev.exit19

_ZNSt6vectorIxSaIxEED2Ev.exit19:                  ; preds = %_ZNSt6vectorIxSaIxEED2Ev.exit17, %39
  %40 = load ptr, ptr %3, align 8
  %.not.i.i.i20 = icmp eq ptr %40, null
  br i1 %.not.i.i.i20, label %_ZNSt6vectorIxSaIxEED2Ev.exit21, label %41

41:                                               ; preds = %_ZNSt6vectorIxSaIxEED2Ev.exit19
  call void @_ZdlPv(ptr noundef nonnull %40) #26
  br label %_ZNSt6vectorIxSaIxEED2Ev.exit21

_ZNSt6vectorIxSaIxEED2Ev.exit21:                  ; preds = %_ZNSt6vectorIxSaIxEED2Ev.exit19, %41
  %42 = load ptr, ptr %2, align 8
  %.not.i.i.i22 = icmp eq ptr %42, null
  br i1 %.not.i.i.i22, label %_ZNSt6vectorIxSaIxEED2Ev.exit23, label %43

43:                                               ; preds = %_ZNSt6vectorIxSaIxEED2Ev.exit21
  call void @_ZdlPv(ptr noundef nonnull %42) #26
  br label %_ZNSt6vectorIxSaIxEED2Ev.exit23

_ZNSt6vectorIxSaIxEED2Ev.exit23:                  ; preds = %_ZNSt6vectorIxSaIxEED2Ev.exit21, %43
  resume { ptr, i32 } %31
}